#include <math.h>
#include <stdio.h>
#include <stdlib.h>
#include <string.h>

int main()
{
	int i;
	float l1,l2;
	float n,count=0,result;
	char x[505],y[505];
	scanf("%f",&n);
    getchar();
	scanf("%s",x);
	scanf("%s",y);
	l1=strlen(x);
	l2=strlen(y);
	if(l1!=l2){
		printf("error");
		return 0;
	}
	for(i=0;i<l1;i++){
		if(x[i]=='A'||x[i]=='T'||x[i]=='C'||x[i]=='G') continue;
		else{
			printf("error");
			return 0;
		}
	}
	for(i=0;i<l2;i++){
		if(y[i]=='A'||y[i]=='T'||y[i]=='C'||y[i]=='G') continue;
		else{
			printf("error");
			return 0;
		}
	}
	for(i=0;i<l1;i++){
		if(x[i]==y[i]){
			count++;
		}
	}
	result=count/l1;
	if(result>n) printf("yes");
	else printf("no");
	return 0;
}