; ModuleID = '5/165.c'
source_filename = "5/165.c"
target datalayout = "e-m:e-p270:32:32-p271:32:32-p272:64:64-i64:64-f80:128-n8:16:32:64-S128"
target triple = "x86_64-pc-linux-gnu"

@.str = private unnamed_addr constant [3 x i8] c"%f\00", align 1
@.str.1 = private unnamed_addr constant [3 x i8] c"%s\00", align 1
@.str.2 = private unnamed_addr constant [6 x i8] c"error\00", align 1
@.str.3 = private unnamed_addr constant [4 x i8] c"yes\00", align 1
@.str.4 = private unnamed_addr constant [3 x i8] c"no\00", align 1

; Function Attrs: noinline nounwind uwtable
define dso_local i32 @main() #0 {
  %1 = alloca i32, align 4
  %2 = alloca i32, align 4
  %3 = alloca float, align 4
  %4 = alloca float, align 4
  %5 = alloca float, align 4
  %6 = alloca float, align 4
  %7 = alloca float, align 4
  %8 = alloca [505 x i8], align 16
  %9 = alloca [505 x i8], align 16
  store i32 0, i32* %1, align 4
  store float 0.000000e+00, float* %6, align 4
  %10 = call i32 (i8*, ...) @__isoc99_scanf(i8* getelementptr inbounds ([3 x i8], [3 x i8]* @.str, i64 0, i64 0), float* %5)
  %11 = call i32 @getchar()
  %12 = getelementptr inbounds [505 x i8], [505 x i8]* %8, i64 0, i64 0
  %13 = call i32 (i8*, ...) @__isoc99_scanf(i8* getelementptr inbounds ([3 x i8], [3 x i8]* @.str.1, i64 0, i64 0), i8* %12)
  %14 = getelementptr inbounds [505 x i8], [505 x i8]* %9, i64 0, i64 0
  %15 = call i32 (i8*, ...) @__isoc99_scanf(i8* getelementptr inbounds ([3 x i8], [3 x i8]* @.str.1, i64 0, i64 0), i8* %14)
  %16 = getelementptr inbounds [505 x i8], [505 x i8]* %8, i64 0, i64 0
  %17 = call i64 @strlen(i8* %16) #3
  %18 = uitofp i64 %17 to float
  store float %18, float* %3, align 4
  %19 = getelementptr inbounds [505 x i8], [505 x i8]* %9, i64 0, i64 0
  %20 = call i64 @strlen(i8* %19) #3
  %21 = uitofp i64 %20 to float
  store float %21, float* %4, align 4
  %22 = load float, float* %3, align 4
  %23 = load float, float* %4, align 4
  %24 = fcmp une float %22, %23
  br i1 %24, label %25, label %27

25:                                               ; preds = %0
  %26 = call i32 (i8*, ...) @printf(i8* getelementptr inbounds ([6 x i8], [6 x i8]* @.str.2, i64 0, i64 0))
  store i32 0, i32* %1, align 4
  br label %144

27:                                               ; preds = %0
  store i32 0, i32* %2, align 4
  br label %28

28:                                               ; preds = %64, %27
  %29 = load i32, i32* %2, align 4
  %30 = sitofp i32 %29 to float
  %31 = load float, float* %3, align 4
  %32 = fcmp olt float %30, %31
  br i1 %32, label %33, label %67

33:                                               ; preds = %28
  %34 = load i32, i32* %2, align 4
  %35 = sext i32 %34 to i64
  %36 = getelementptr inbounds [505 x i8], [505 x i8]* %8, i64 0, i64 %35
  %37 = load i8, i8* %36, align 1
  %38 = sext i8 %37 to i32
  %39 = icmp eq i32 %38, 65
  br i1 %39, label %61, label %40

40:                                               ; preds = %33
  %41 = load i32, i32* %2, align 4
  %42 = sext i32 %41 to i64
  %43 = getelementptr inbounds [505 x i8], [505 x i8]* %8, i64 0, i64 %42
  %44 = load i8, i8* %43, align 1
  %45 = sext i8 %44 to i32
  %46 = icmp eq i32 %45, 84
  br i1 %46, label %61, label %47

47:                                               ; preds = %40
  %48 = load i32, i32* %2, align 4
  %49 = sext i32 %48 to i64
  %50 = getelementptr inbounds [505 x i8], [505 x i8]* %8, i64 0, i64 %49
  %51 = load i8, i8* %50, align 1
  %52 = sext i8 %51 to i32
  %53 = icmp eq i32 %52, 67
  br i1 %53, label %61, label %54

54:                                               ; preds = %47
  %55 = load i32, i32* %2, align 4
  %56 = sext i32 %55 to i64
  %57 = getelementptr inbounds [505 x i8], [505 x i8]* %8, i64 0, i64 %56
  %58 = load i8, i8* %57, align 1
  %59 = sext i8 %58 to i32
  %60 = icmp eq i32 %59, 71
  br i1 %60, label %61, label %62

61:                                               ; preds = %54, %47, %40, %33
  br label %64

62:                                               ; preds = %54
  %63 = call i32 (i8*, ...) @printf(i8* getelementptr inbounds ([6 x i8], [6 x i8]* @.str.2, i64 0, i64 0))
  store i32 0, i32* %1, align 4
  br label %144

64:                                               ; preds = %61
  %65 = load i32, i32* %2, align 4
  %66 = add nsw i32 %65, 1
  store i32 %66, i32* %2, align 4
  br label %28

67:                                               ; preds = %28
  store i32 0, i32* %2, align 4
  br label %68

68:                                               ; preds = %104, %67
  %69 = load i32, i32* %2, align 4
  %70 = sitofp i32 %69 to float
  %71 = load float, float* %4, align 4
  %72 = fcmp olt float %70, %71
  br i1 %72, label %73, label %107

73:                                               ; preds = %68
  %74 = load i32, i32* %2, align 4
  %75 = sext i32 %74 to i64
  %76 = getelementptr inbounds [505 x i8], [505 x i8]* %9, i64 0, i64 %75
  %77 = load i8, i8* %76, align 1
  %78 = sext i8 %77 to i32
  %79 = icmp eq i32 %78, 65
  br i1 %79, label %101, label %80

80:                                               ; preds = %73
  %81 = load i32, i32* %2, align 4
  %82 = sext i32 %81 to i64
  %83 = getelementptr inbounds [505 x i8], [505 x i8]* %9, i64 0, i64 %82
  %84 = load i8, i8* %83, align 1
  %85 = sext i8 %84 to i32
  %86 = icmp eq i32 %85, 84
  br i1 %86, label %101, label %87

87:                                               ; preds = %80
  %88 = load i32, i32* %2, align 4
  %89 = sext i32 %88 to i64
  %90 = getelementptr inbounds [505 x i8], [505 x i8]* %9, i64 0, i64 %89
  %91 = load i8, i8* %90, align 1
  %92 = sext i8 %91 to i32
  %93 = icmp eq i32 %92, 67
  br i1 %93, label %101, label %94

94:                                               ; preds = %87
  %95 = load i32, i32* %2, align 4
  %96 = sext i32 %95 to i64
  %97 = getelementptr inbounds [505 x i8], [505 x i8]* %9, i64 0, i64 %96
  %98 = load i8, i8* %97, align 1
  %99 = sext i8 %98 to i32
  %100 = icmp eq i32 %99, 71
  br i1 %100, label %101, label %102

101:                                              ; preds = %94, %87, %80, %73
  br label %104

102:                                              ; preds = %94
  %103 = call i32 (i8*, ...) @printf(i8* getelementptr inbounds ([6 x i8], [6 x i8]* @.str.2, i64 0, i64 0))
  store i32 0, i32* %1, align 4
  br label %144

104:                                              ; preds = %101
  %105 = load i32, i32* %2, align 4
  %106 = add nsw i32 %105, 1
  store i32 %106, i32* %2, align 4
  br label %68

107:                                              ; preds = %68
  store i32 0, i32* %2, align 4
  br label %108

108:                                              ; preds = %129, %107
  %109 = load i32, i32* %2, align 4
  %110 = sitofp i32 %109 to float
  %111 = load float, float* %3, align 4
  %112 = fcmp olt float %110, %111
  br i1 %112, label %113, label %132

113:                                              ; preds = %108
  %114 = load i32, i32* %2, align 4
  %115 = sext i32 %114 to i64
  %116 = getelementptr inbounds [505 x i8], [505 x i8]* %8, i64 0, i64 %115
  %117 = load i8, i8* %116, align 1
  %118 = sext i8 %117 to i32
  %119 = load i32, i32* %2, align 4
  %120 = sext i32 %119 to i64
  %121 = getelementptr inbounds [505 x i8], [505 x i8]* %9, i64 0, i64 %120
  %122 = load i8, i8* %121, align 1
  %123 = sext i8 %122 to i32
  %124 = icmp eq i32 %118, %123
  br i1 %124, label %125, label %128

125:                                              ; preds = %113
  %126 = load float, float* %6, align 4
  %127 = fadd float %126, 1.000000e+00
  store float %127, float* %6, align 4
  br label %128

128:                                              ; preds = %125, %113
  br label %129

129:                                              ; preds = %128
  %130 = load i32, i32* %2, align 4
  %131 = add nsw i32 %130, 1
  store i32 %131, i32* %2, align 4
  br label %108

132:                                              ; preds = %108
  %133 = load float, float* %6, align 4
  %134 = load float, float* %3, align 4
  %135 = fdiv float %133, %134
  store float %135, float* %7, align 4
  %136 = load float, float* %7, align 4
  %137 = load float, float* %5, align 4
  %138 = fcmp ogt float %136, %137
  br i1 %138, label %139, label %141

139:                                              ; preds = %132
  %140 = call i32 (i8*, ...) @printf(i8* getelementptr inbounds ([4 x i8], [4 x i8]* @.str.3, i64 0, i64 0))
  br label %143

141:                                              ; preds = %132
  %142 = call i32 (i8*, ...) @printf(i8* getelementptr inbounds ([3 x i8], [3 x i8]* @.str.4, i64 0, i64 0))
  br label %143

143:                                              ; preds = %141, %139
  store i32 0, i32* %1, align 4
  br label %144

144:                                              ; preds = %143, %102, %62, %25
  %145 = load i32, i32* %1, align 4
  ret i32 %145
}

declare dso_local i32 @__isoc99_scanf(i8*, ...) #1

declare dso_local i32 @getchar() #1

; Function Attrs: nounwind readonly
declare dso_local i64 @strlen(i8*) #2

declare dso_local i32 @printf(i8*, ...) #1


!llvm.module.flags = !{!0}
!llvm.ident = !{!1}

!0 = !{i32 1, !"wchar_size", i32 4}
!1 = !{!"clang version 10.0.0-4ubuntu1 "}
